; Function Attrs: nounwind uwtable
define internal fastcc void @pushAlist() unnamed_addr #0 {
  %1 = tail call noalias dereferenceable_or_null(32) ptr @calloc(i64 noundef 1, i64 noundef range(i64 1, 121) 32) #22
  %2 = icmp eq ptr %1, null
  br i1 %2, label %3, label %gv_alloc.exit

3:                                                ; preds = %0
  %4 = load ptr, ptr @stderr, align 8, !tbaa !39
  %5 = tail call i32 (ptr, ptr, ...) @fprintf(ptr noundef %4, ptr noundef nonnull @.str.9, i64 noundef 32) #23
  tail call fastcc void @graphviz_exit() #24
  unreachable

gv_alloc.exit:                                    ; preds = %0
  %6 = load ptr, ptr @L, align 8, !tbaa !13
  %.not = icmp eq ptr %6, null
  br i1 %.not, label %48, label %7

7:                                                ; preds = %gv_alloc.exit
  %8 = load i64, ptr getelementptr inbounds nuw (i8, ptr @liststk, i64 16), align 8, !tbaa !4
  %9 = load i64, ptr getelementptr inbounds nuw (i8, ptr @liststk, i64 24), align 8, !tbaa !12
  %10 = icmp eq i64 %8, %9
  br i1 %10, label %11, label %._crit_edge.i.i.i

._crit_edge.i.i.i:                                ; preds = %7
  %.pre.i.i.i = load i64, ptr getelementptr inbounds nuw (i8, ptr @liststk, i64 8), align 8, !tbaa !11
  %.pre4.i.i.i = load ptr, ptr @liststk, align 8, !tbaa !10
  br label %dts_push_back.exit

11:                                               ; preds = %7
  %12 = icmp eq i64 %8, 0
  %13 = shl i64 %8, 1
  %spec.select.i.i.i = select i1 %12, i64 1, i64 %13
  %mul.ov.i.i.i = icmp ugt i64 %spec.select.i.i.i, 2305843009213693951
  br i1 %mul.ov.i.i.i, label %36, label %14

14:                                               ; preds = %11
  %15 = load ptr, ptr @liststk, align 8, !tbaa !10
  %16 = shl nuw i64 %spec.select.i.i.i, 3
  %17 = tail call ptr @realloc(ptr noundef %15, i64 noundef %16) #25
  %18 = icmp eq ptr %17, null
  br i1 %18, label %36, label %19

19:                                               ; preds = %14
  %20 = load i64, ptr getelementptr inbounds nuw (i8, ptr @liststk, i64 24), align 8, !tbaa !12
  %21 = getelementptr inbounds nuw ptr, ptr %17, i64 %20
  %22 = sub i64 %spec.select.i.i.i, %20
  %23 = shl i64 %22, 3
  tail call void @llvm.memset.p0.i64(ptr nonnull align 8 %21, i8 0, i64 %23, i1 false)
  %24 = load i64, ptr getelementptr inbounds nuw (i8, ptr @liststk, i64 8), align 8, !tbaa !11
  %25 = load i64, ptr getelementptr inbounds nuw (i8, ptr @liststk, i64 16), align 8, !tbaa !4
  %26 = add i64 %25, %24
  %27 = icmp ugt i64 %26, %20
  br i1 %27, label %28, label %34

28:                                               ; preds = %19
  %29 = sub i64 %20, %24
  %30 = sub i64 %spec.select.i.i.i, %29
  %31 = getelementptr inbounds nuw ptr, ptr %17, i64 %30
  %32 = getelementptr inbounds nuw ptr, ptr %17, i64 %24
  %33 = shl i64 %29, 3
  tail call void @llvm.memmove.p0.p0.i64(ptr nonnull align 8 %31, ptr nonnull align 8 %32, i64 %33, i1 false)
  store i64 %30, ptr getelementptr inbounds nuw (i8, ptr @liststk, i64 8), align 8, !tbaa !11
  br label %34

34:                                               ; preds = %28, %19
  %35 = phi i64 [ %24, %19 ], [ %30, %28 ]
  store ptr %17, ptr @liststk, align 8, !tbaa !10
  store i64 %spec.select.i.i.i, ptr getelementptr inbounds nuw (i8, ptr @liststk, i64 24), align 8, !tbaa !12
  br label %dts_push_back.exit

36:                                               ; preds = %14, %11
  %.2.i.ph.i.i = phi i32 [ 34, %11 ], [ 12, %14 ]
  %37 = load ptr, ptr @stderr, align 8, !tbaa !39
  %38 = tail call ptr @strerror(i32 noundef %.2.i.ph.i.i) #20
  %39 = tail call i32 (ptr, ptr, ...) @fprintf(ptr noundef %37, ptr noundef nonnull @.str.10, ptr noundef %38) #23
  tail call fastcc void @graphviz_exit() #24
  unreachable

dts_push_back.exit:                               ; preds = %._crit_edge.i.i.i, %34
  %40 = phi ptr [ %.pre4.i.i.i, %._crit_edge.i.i.i ], [ %17, %34 ]
  %41 = phi i64 [ %9, %._crit_edge.i.i.i ], [ %spec.select.i.i.i, %34 ]
  %42 = phi i64 [ %8, %._crit_edge.i.i.i ], [ %25, %34 ]
  %43 = phi i64 [ %.pre.i.i.i, %._crit_edge.i.i.i ], [ %35, %34 ]
  %44 = add i64 %43, %42
  %45 = urem i64 %44, %41
  %46 = getelementptr inbounds nuw ptr, ptr %40, i64 %45
  store ptr %6, ptr %46, align 8, !tbaa !13
  %47 = add i64 %42, 1
  store i64 %47, ptr getelementptr inbounds nuw (i8, ptr @liststk, i64 16), align 8, !tbaa !4
  br label %48

48:                                               ; preds = %dts_push_back.exit, %gv_alloc.exit
  store ptr %1, ptr @L, align 8, !tbaa !13
  ret void
}